(lp0
(lp1
(c__builtin__
set
p2
((lp3
S'CurrentNode_none'
p4
aS'ClosestNode_WayPoint1'
p5
atp6
Rp7
(lp8
S'goto_WayPoint12'
p9
atp10
a(g2
((lp11
S'ClosestNode_WayPoint12'
p12
aS'CurrentNode_none'
p13
atp14
Rp15
(lp16
S'goto_WayPoint12'
p17
atp18
a(g2
((lp19
S'ClosestNode_WayPoint12'
p20
aS'CurrentNode_WayPoint12'
p21
atp22
Rp23
(lp24
S'goto_WayPoint5'
p25
atp26
a(g2
((lp27
S'ClosestNode_WayPoint12'
p28
aS'CurrentNode_none'
p29
atp30
Rp31
(lp32
S'goto_WayPoint5'
p33
atp34
a(g2
((lp35
S'ClosestNode_WayPoint5'
p36
aS'CurrentNode_none'
p37
atp38
Rp39
(lp40
S'goto_WayPoint5'
p41
atp42
a(g2
((lp43
S'CurrentNode_WayPoint5'
p44
aS'ClosestNode_WayPoint5'
p45
atp46
Rp47
(lp48
S'goto_WayPoint6'
p49
atp50
a(g2
((lp51
S'ClosestNode_WayPoint5'
p52
aS'CurrentNode_none'
p53
atp54
Rp55
(lp56
S'goto_WayPoint6'
p57
atp58
a(g2
((lp59
S'ClosestNode_WayPoint6'
p60
aS'CurrentNode_none'
p61
atp62
Rp63
(lp64
S'goto_WayPoint6'
p65
atp66
a(g2
((lp67
S'ClosestNode_WayPoint6'
p68
aS'CurrentNode_WayPoint6'
p69
atp70
Rp71
(lp72
S'goto_WayPoint4'
p73
atp74
a(g2
((lp75
S'ClosestNode_WayPoint6'
p76
aS'CurrentNode_none'
p77
atp78
Rp79
(lp80
S'goto_WayPoint4'
p81
atp82
a(g2
((lp83
S'ClosestNode_WayPoint4'
p84
aS'CurrentNode_none'
p85
atp86
Rp87
(lp88
S'goto_WayPoint4'
p89
atp90
a(g2
((lp91
S'CurrentNode_WayPoint4'
p92
aS'ClosestNode_WayPoint4'
p93
atp94
Rp95
(lp96
S'NO_ACTION'
p97
atp98
aa(lp99
(g2
((lp100
S'CurrentNode_WayPoint5'
p101
aS'ClosestNode_WayPoint5'
p102
atp103
Rp104
(lp105
S'goto_WayPoint6'
p106
atp107
a(g2
((lp108
S'ClosestNode_WayPoint5'
p109
aS'CurrentNode_none'
p110
atp111
Rp112
(lp113
S'goto_WayPoint6'
p114
atp115
a(g2
((lp116
S'ClosestNode_WayPoint6'
p117
aS'CurrentNode_none'
p118
atp119
Rp120
(lp121
S'goto_WayPoint6'
p122
atp123
a(g2
((lp124
S'ClosestNode_WayPoint6'
p125
aS'CurrentNode_WayPoint6'
p126
atp127
Rp128
(lp129
S'goto_WayPoint4'
p130
atp131
a(g2
((lp132
S'ClosestNode_WayPoint6'
p133
aS'CurrentNode_none'
p134
atp135
Rp136
(lp137
S'goto_WayPoint4'
p138
atp139
a(g2
((lp140
S'ClosestNode_WayPoint4'
p141
aS'CurrentNode_none'
p142
atp143
Rp144
(lp145
S'goto_WayPoint4'
p146
atp147
a(g2
((lp148
S'CurrentNode_WayPoint4'
p149
aS'ClosestNode_WayPoint4'
p150
atp151
Rp152
(lp153
g97
atp154
aa(lp155
(g2
((lp156
S'ClosestNode_WayPoint4'
p157
aS'CurrentNode_none'
p158
atp159
Rp160
(lp161
S'goto_WayPoint4'
p162
atp163
a(g2
((lp164
S'CurrentNode_WayPoint4'
p165
aS'ClosestNode_WayPoint4'
p166
atp167
Rp168
(lp169
g97
atp170
aa(lp171
(g2
((lp172
S'ClosestNode_WayPoint11'
p173
aS'CurrentNode_WayPoint11'
p174
atp175
Rp176
(lp177
S'goto_WayPoint8'
p178
atp179
a(g2
((lp180
S'ClosestNode_WayPoint11'
p181
aS'CurrentNode_none'
p182
atp183
Rp184
(lp185
S'goto_WayPoint8'
p186
atp187
a(g2
((lp188
S'ClosestNode_WayPoint10'
p189
aS'CurrentNode_none'
p190
atp191
Rp192
(lp193
S'goto_WayPoint8'
p194
atp195
a(g2
((lp196
S'CurrentNode_none'
p197
aS'ClosestNode_WayPoint9'
p198
atp199
Rp200
(lp201
S'goto_WayPoint8'
p202
atp203
a(g2
((lp204
S'CurrentNode_none'
p205
aS'ClosestNode_WayPoint8'
p206
atp207
Rp208
(lp209
S'goto_WayPoint8'
p210
atp211
a(g2
((lp212
S'CurrentNode_WayPoint8'
p213
aS'ClosestNode_WayPoint8'
p214
atp215
Rp216
(lp217
S'goto_WayPoint5'
p218
atp219
a(g2
((lp220
S'CurrentNode_none'
p221
aS'ClosestNode_WayPoint8'
p222
atp223
Rp224
(lp225
S'goto_WayPoint5'
p226
atp227
a(g2
((lp228
S'ClosestNode_WayPoint5'
p229
aS'CurrentNode_none'
p230
atp231
Rp232
(lp233
S'goto_WayPoint5'
p234
atp235
a(g2
((lp236
S'CurrentNode_WayPoint5'
p237
aS'ClosestNode_WayPoint5'
p238
atp239
Rp240
(lp241
S'goto_WayPoint6'
p242
atp243
a(g2
((lp244
S'ClosestNode_WayPoint5'
p245
aS'CurrentNode_none'
p246
atp247
Rp248
(lp249
S'goto_WayPoint6'
p250
atp251
a(g2
((lp252
S'ClosestNode_WayPoint6'
p253
aS'CurrentNode_none'
p254
atp255
Rp256
(lp257
S'goto_WayPoint6'
p258
atp259
a(g2
((lp260
S'ClosestNode_WayPoint6'
p261
aS'CurrentNode_WayPoint6'
p262
atp263
Rp264
(lp265
S'goto_WayPoint4'
p266
atp267
a(g2
((lp268
S'ClosestNode_WayPoint6'
p269
aS'CurrentNode_none'
p270
atp271
Rp272
(lp273
S'goto_WayPoint4'
p274
atp275
a(g2
((lp276
S'ClosestNode_WayPoint4'
p277
aS'CurrentNode_none'
p278
atp279
Rp280
(lp281
S'goto_WayPoint4'
p282
atp283
a(g2
((lp284
S'CurrentNode_WayPoint4'
p285
aS'ClosestNode_WayPoint4'
p286
atp287
Rp288
(lp289
g97
atp290
aa(lp291
(g2
((lp292
S'ClosestNode_WayPoint13'
p293
aS'CurrentNode_WayPoint13'
p294
atp295
Rp296
(lp297
S'goto_WayPoint3'
p298
atp299
a(g2
((lp300
S'ClosestNode_WayPoint13'
p301
aS'CurrentNode_none'
p302
atp303
Rp304
(lp305
S'goto_WayPoint3'
p306
atp307
a(g2
((lp308
S'CurrentNode_none'
p309
aS'ClosestNode_WayPoint3'
p310
atp311
Rp312
(lp313
S'goto_WayPoint3'
p314
atp315
a(g2
((lp316
S'ClosestNode_WayPoint3'
p317
aS'CurrentNode_WayPoint3'
p318
atp319
Rp320
(lp321
S'goto_WayPoint4'
p322
atp323
a(g2
((lp324
S'CurrentNode_none'
p325
aS'ClosestNode_WayPoint3'
p326
atp327
Rp328
(lp329
S'goto_WayPoint4'
p330
atp331
a(g2
((lp332
S'ClosestNode_WayPoint4'
p333
aS'CurrentNode_none'
p334
atp335
Rp336
(lp337
S'goto_WayPoint4'
p338
atp339
a(g2
((lp340
S'CurrentNode_WayPoint4'
p341
aS'ClosestNode_WayPoint4'
p342
atp343
Rp344
(lp345
g97
atp346
aa(lp347
(g2
((lp348
S'CurrentNode_WayPoint5'
p349
aS'ClosestNode_WayPoint5'
p350
atp351
Rp352
(lp353
S'goto_WayPoint6'
p354
atp355
a(g2
((lp356
S'ClosestNode_WayPoint5'
p357
aS'CurrentNode_none'
p358
atp359
Rp360
(lp361
S'goto_WayPoint6'
p362
atp363
a(g2
((lp364
S'ClosestNode_WayPoint6'
p365
aS'CurrentNode_none'
p366
atp367
Rp368
(lp369
S'goto_WayPoint6'
p370
atp371
a(g2
((lp372
S'ClosestNode_WayPoint6'
p373
aS'CurrentNode_WayPoint6'
p374
atp375
Rp376
(lp377
S'goto_WayPoint4'
p378
atp379
a(g2
((lp380
S'ClosestNode_WayPoint6'
p381
aS'CurrentNode_none'
p382
atp383
Rp384
(lp385
S'goto_WayPoint4'
p386
atp387
a(g2
((lp388
S'ClosestNode_WayPoint4'
p389
aS'CurrentNode_none'
p390
atp391
Rp392
(lp393
S'goto_WayPoint4'
p394
atp395
a(g2
((lp396
S'CurrentNode_WayPoint4'
p397
aS'ClosestNode_WayPoint4'
p398
atp399
Rp400
(lp401
g97
atp402
aa(lp403
a(lp404
(g2
((lp405
S'ClosestNode_WayPoint13'
p406
aS'CurrentNode_WayPoint13'
p407
atp408
Rp409
(lp410
S'goto_WayPoint3'
p411
atp412
a(g2
((lp413
S'ClosestNode_WayPoint13'
p414
aS'CurrentNode_none'
p415
atp416
Rp417
(lp418
S'goto_WayPoint3'
p419
atp420
a(g2
((lp421
S'CurrentNode_none'
p422
aS'ClosestNode_WayPoint3'
p423
atp424
Rp425
(lp426
S'goto_WayPoint3'
p427
atp428
a(g2
((lp429
S'ClosestNode_WayPoint3'
p430
aS'CurrentNode_WayPoint3'
p431
atp432
Rp433
(lp434
S'goto_WayPoint4'
p435
atp436
a(g2
((lp437
S'CurrentNode_none'
p438
aS'ClosestNode_WayPoint3'
p439
atp440
Rp441
(lp442
S'goto_WayPoint4'
p443
atp444
a(g2
((lp445
S'ClosestNode_WayPoint4'
p446
aS'CurrentNode_none'
p447
atp448
Rp449
(lp450
S'goto_WayPoint4'
p451
atp452
a(g2
((lp453
S'CurrentNode_WayPoint4'
p454
aS'ClosestNode_WayPoint4'
p455
atp456
Rp457
(lp458
g97
atp459
aa(lp460
(g2
((lp461
S'CurrentNode_WayPoint1'
p462
aS'ClosestNode_WayPoint1'
p463
atp464
Rp465
(lp466
S'goto_WayPoint4'
p467
atp468
a(g2
((lp469
S'CurrentNode_none'
p470
aS'ClosestNode_WayPoint1'
p471
atp472
Rp473
(lp474
S'goto_WayPoint4'
p475
atp476
a(g2
((lp477
S'ClosestNode_WayPoint2'
p478
aS'CurrentNode_none'
p479
atp480
Rp481
(lp482
S'goto_WayPoint4'
p483
atp484
a(g2
((lp485
S'ClosestNode_WayPoint12'
p486
aS'CurrentNode_none'
p487
atp488
Rp489
(lp490
S'goto_WayPoint4'
p491
atp492
a(g2
((lp493
S'ClosestNode_WayPoint5'
p494
aS'CurrentNode_none'
p495
atp496
Rp497
(lp498
S'goto_WayPoint4'
p499
atp500
a(g2
((lp501
S'ClosestNode_WayPoint7'
p502
aS'CurrentNode_none'
p503
atp504
Rp505
(lp506
S'goto_WayPoint4'
p507
atp508
a(g2
((lp509
S'ClosestNode_WayPoint6'
p510
aS'CurrentNode_none'
p511
atp512
Rp513
(lp514
S'goto_WayPoint4'
p515
atp516
a(g2
((lp517
S'ClosestNode_WayPoint4'
p518
aS'CurrentNode_none'
p519
atp520
Rp521
(lp522
S'goto_WayPoint4'
p523
atp524
a(g2
((lp525
S'CurrentNode_WayPoint4'
p526
aS'ClosestNode_WayPoint4'
p527
atp528
Rp529
(lp530
g97
atp531
aa(lp532
(g2
((lp533
S'ClosestNode_WayPoint5'
p534
aS'CurrentNode_none'
p535
atp536
Rp537
(lp538
S'goto_WayPoint7'
p539
atp540
a(g2
((lp541
S'ClosestNode_WayPoint12'
p542
aS'CurrentNode_none'
p543
atp544
Rp545
(lp546
S'goto_WayPoint7'
p547
atp548
a(g2
((lp549
S'ClosestNode_WayPoint5'
p550
aS'CurrentNode_none'
p551
atp552
Rp553
(lp554
S'goto_WayPoint7'
p555
atp556
a(g2
((lp557
S'ClosestNode_WayPoint7'
p558
aS'CurrentNode_none'
p559
atp560
Rp561
(lp562
S'goto_WayPoint7'
p563
atp564
a(g2
((lp565
S'ClosestNode_WayPoint7'
p566
aS'CurrentNode_WayPoint7'
p567
atp568
Rp569
(lp570
S'goto_WayPoint4'
p571
atp572
a(g2
((lp573
S'ClosestNode_WayPoint7'
p574
aS'CurrentNode_none'
p575
atp576
Rp577
(lp578
S'goto_WayPoint4'
p579
atp580
a(g2
((lp581
S'ClosestNode_WayPoint6'
p582
aS'CurrentNode_none'
p583
atp584
Rp585
(lp586
S'goto_WayPoint4'
p587
atp588
a(g2
((lp589
S'ClosestNode_WayPoint4'
p590
aS'CurrentNode_none'
p591
atp592
Rp593
(lp594
S'goto_WayPoint4'
p595
atp596
a(g2
((lp597
S'CurrentNode_WayPoint4'
p598
aS'ClosestNode_WayPoint4'
p599
atp600
Rp601
(lp602
g97
atp603
aa(lp604
(g2
((lp605
S'ClosestNode_WayPoint12'
p606
aS'CurrentNode_none'
p607
atp608
Rp609
(lp610
S'goto_WayPoint5'
p611
atp612
a(g2
((lp613
S'ClosestNode_WayPoint5'
p614
aS'CurrentNode_none'
p615
atp616
Rp617
(lp618
S'goto_WayPoint5'
p619
atp620
a(g2
((lp621
S'CurrentNode_WayPoint5'
p622
aS'ClosestNode_WayPoint5'
p623
atp624
Rp625
(lp626
S'goto_WayPoint4'
p627
atp628
a(g2
((lp629
S'ClosestNode_WayPoint5'
p630
aS'CurrentNode_none'
p631
atp632
Rp633
(lp634
S'goto_WayPoint4'
p635
atp636
a(g2
((lp637
S'ClosestNode_WayPoint6'
p638
aS'CurrentNode_none'
p639
atp640
Rp641
(lp642
S'goto_WayPoint4'
p643
atp644
a(g2
((lp645
S'ClosestNode_WayPoint4'
p646
aS'CurrentNode_none'
p647
atp648
Rp649
(lp650
S'goto_WayPoint4'
p651
atp652
a(g2
((lp653
S'CurrentNode_WayPoint4'
p654
aS'ClosestNode_WayPoint4'
p655
atp656
Rp657
(lp658
g97
atp659
aa(lp660
(g2
((lp661
S'ClosestNode_WayPoint3'
p662
aS'CurrentNode_WayPoint3'
p663
atp664
Rp665
(lp666
S'goto_WayPoint4'
p667
atp668
a(g2
((lp669
S'CurrentNode_none'
p670
aS'ClosestNode_WayPoint3'
p671
atp672
Rp673
(lp674
S'goto_WayPoint4'
p675
atp676
a(g2
((lp677
S'ClosestNode_WayPoint4'
p678
aS'CurrentNode_none'
p679
atp680
Rp681
(lp682
S'goto_WayPoint4'
p683
atp684
a(g2
((lp685
S'CurrentNode_WayPoint4'
p686
aS'ClosestNode_WayPoint4'
p687
atp688
Rp689
(lp690
g97
atp691
aa(lp692
(g2
((lp693
S'ClosestNode_WayPoint7'
p694
aS'CurrentNode_WayPoint7'
p695
atp696
Rp697
(lp698
S'goto_WayPoint6'
p699
atp700
a(g2
((lp701
S'ClosestNode_WayPoint7'
p702
aS'CurrentNode_none'
p703
atp704
Rp705
(lp706
S'goto_WayPoint6'
p707
atp708
a(g2
((lp709
S'ClosestNode_WayPoint6'
p710
aS'CurrentNode_none'
p711
atp712
Rp713
(lp714
S'goto_WayPoint6'
p715
atp716
a(g2
((lp717
S'ClosestNode_WayPoint6'
p718
aS'CurrentNode_WayPoint6'
p719
atp720
Rp721
(lp722
S'goto_WayPoint4'
p723
atp724
a(g2
((lp725
S'ClosestNode_WayPoint6'
p726
aS'CurrentNode_none'
p727
atp728
Rp729
(lp730
S'goto_WayPoint4'
p731
atp732
a(g2
((lp733
S'ClosestNode_WayPoint4'
p734
aS'CurrentNode_none'
p735
atp736
Rp737
(lp738
S'goto_WayPoint4'
p739
atp740
a(g2
((lp741
S'CurrentNode_WayPoint4'
p742
aS'ClosestNode_WayPoint4'
p743
atp744
Rp745
(lp746
g97
atp747
aa(lp748
(g2
((lp749
S'ClosestNode_WayPoint2'
p750
aS'CurrentNode_WayPoint2'
p751
atp752
Rp753
(lp754
S'goto_WayPoint7'
p755
atp756
a(g2
((lp757
S'ClosestNode_WayPoint2'
p758
aS'CurrentNode_none'
p759
atp760
Rp761
(lp762
S'goto_WayPoint7'
p763
atp764
a(g2
((lp765
S'ClosestNode_WayPoint7'
p766
aS'CurrentNode_none'
p767
atp768
Rp769
(lp770
S'goto_WayPoint7'
p771
atp772
a(g2
((lp773
S'ClosestNode_WayPoint7'
p774
aS'CurrentNode_WayPoint7'
p775
atp776
Rp777
(lp778
S'goto_WayPoint4'
p779
atp780
a(g2
((lp781
S'ClosestNode_WayPoint7'
p782
aS'CurrentNode_none'
p783
atp784
Rp785
(lp786
S'goto_WayPoint4'
p787
atp788
a(g2
((lp789
S'ClosestNode_WayPoint6'
p790
aS'CurrentNode_none'
p791
atp792
Rp793
(lp794
S'goto_WayPoint4'
p795
atp796
a(g2
((lp797
S'ClosestNode_WayPoint4'
p798
aS'CurrentNode_none'
p799
atp800
Rp801
(lp802
S'goto_WayPoint4'
p803
atp804
a(g2
((lp805
S'CurrentNode_WayPoint4'
p806
aS'ClosestNode_WayPoint4'
p807
atp808
Rp809
(lp810
g97
atp811
aa(lp812
(g2
((lp813
S'ClosestNode_WayPoint12'
p814
aS'CurrentNode_WayPoint12'
p815
atp816
Rp817
(lp818
S'goto_WayPoint5'
p819
atp820
a(g2
((lp821
S'ClosestNode_WayPoint12'
p822
aS'CurrentNode_none'
p823
atp824
Rp825
(lp826
S'goto_WayPoint5'
p827
atp828
a(g2
((lp829
S'ClosestNode_WayPoint5'
p830
aS'CurrentNode_none'
p831
atp832
Rp833
(lp834
S'goto_WayPoint5'
p835
atp836
a(g2
((lp837
S'CurrentNode_WayPoint5'
p838
aS'ClosestNode_WayPoint5'
p839
atp840
Rp841
(lp842
S'goto_WayPoint6'
p843
atp844
a(g2
((lp845
S'ClosestNode_WayPoint5'
p846
aS'CurrentNode_none'
p847
atp848
Rp849
(lp850
S'goto_WayPoint6'
p851
atp852
a(g2
((lp853
S'ClosestNode_WayPoint6'
p854
aS'CurrentNode_none'
p855
atp856
Rp857
(lp858
S'goto_WayPoint6'
p859
atp860
a(g2
((lp861
S'ClosestNode_WayPoint6'
p862
aS'CurrentNode_WayPoint6'
p863
atp864
Rp865
(lp866
S'goto_WayPoint4'
p867
atp868
a(g2
((lp869
S'ClosestNode_WayPoint6'
p870
aS'CurrentNode_none'
p871
atp872
Rp873
(lp874
S'goto_WayPoint4'
p875
atp876
a(g2
((lp877
S'ClosestNode_WayPoint4'
p878
aS'CurrentNode_none'
p879
atp880
Rp881
(lp882
S'goto_WayPoint4'
p883
atp884
a(g2
((lp885
S'CurrentNode_WayPoint4'
p886
aS'ClosestNode_WayPoint4'
p887
atp888
Rp889
(lp890
g97
atp891
aa(lp892
(g2
((lp893
S'ClosestNode_WayPoint5'
p894
aS'CurrentNode_none'
p895
atp896
Rp897
(lp898
S'goto_WayPoint6'
p899
atp900
a(g2
((lp901
S'ClosestNode_WayPoint6'
p902
aS'CurrentNode_none'
p903
atp904
Rp905
(lp906
S'goto_WayPoint6'
p907
atp908
a(g2
((lp909
S'ClosestNode_WayPoint6'
p910
aS'CurrentNode_WayPoint6'
p911
atp912
Rp913
(lp914
S'goto_WayPoint4'
p915
atp916
a(g2
((lp917
S'ClosestNode_WayPoint6'
p918
aS'CurrentNode_none'
p919
atp920
Rp921
(lp922
S'goto_WayPoint4'
p923
atp924
a(g2
((lp925
S'ClosestNode_WayPoint4'
p926
aS'CurrentNode_none'
p927
atp928
Rp929
(lp930
S'goto_WayPoint4'
p931
atp932
a(g2
((lp933
S'CurrentNode_WayPoint4'
p934
aS'ClosestNode_WayPoint4'
p935
atp936
Rp937
(lp938
g97
atp939
aa(lp940
(g2
((lp941
S'ClosestNode_WayPoint10'
p942
aS'CurrentNode_WayPoint10'
p943
atp944
Rp945
(lp946
S'goto_WayPoint8'
p947
atp948
a(g2
((lp949
S'ClosestNode_WayPoint10'
p950
aS'CurrentNode_none'
p951
atp952
Rp953
(lp954
S'goto_WayPoint8'
p955
atp956
a(g2
((lp957
S'CurrentNode_none'
p958
aS'ClosestNode_WayPoint9'
p959
atp960
Rp961
(lp962
S'goto_WayPoint8'
p963
atp964
a(g2
((lp965
S'CurrentNode_none'
p966
aS'ClosestNode_WayPoint8'
p967
atp968
Rp969
(lp970
S'goto_WayPoint8'
p971
atp972
a(g2
((lp973
S'CurrentNode_WayPoint8'
p974
aS'ClosestNode_WayPoint8'
p975
atp976
Rp977
(lp978
S'goto_WayPoint12'
p979
atp980
a(g2
((lp981
S'CurrentNode_none'
p982
aS'ClosestNode_WayPoint8'
p983
atp984
Rp985
(lp986
S'goto_WayPoint12'
p987
atp988
a(g2
((lp989
S'ClosestNode_WayPoint12'
p990
aS'CurrentNode_none'
p991
atp992
Rp993
(lp994
S'goto_WayPoint12'
p995
atp996
a(g2
((lp997
S'ClosestNode_WayPoint12'
p998
aS'CurrentNode_WayPoint12'
p999
atp1000
Rp1001
(lp1002
S'goto_WayPoint5'
p1003
atp1004
a(g2
((lp1005
S'ClosestNode_WayPoint12'
p1006
aS'CurrentNode_none'
p1007
atp1008
Rp1009
(lp1010
S'goto_WayPoint5'
p1011
atp1012
a(g2
((lp1013
S'ClosestNode_WayPoint5'
p1014
aS'CurrentNode_none'
p1015
atp1016
Rp1017
(lp1018
S'goto_WayPoint5'
p1019
atp1020
a(g2
((lp1021
S'CurrentNode_WayPoint5'
p1022
aS'ClosestNode_WayPoint5'
p1023
atp1024
Rp1025
(lp1026
S'goto_WayPoint6'
p1027
atp1028
a(g2
((lp1029
S'ClosestNode_WayPoint5'
p1030
aS'CurrentNode_none'
p1031
atp1032
Rp1033
(lp1034
S'goto_WayPoint6'
p1035
atp1036
a(g2
((lp1037
S'ClosestNode_WayPoint6'
p1038
aS'CurrentNode_none'
p1039
atp1040
Rp1041
(lp1042
S'goto_WayPoint6'
p1043
atp1044
a(g2
((lp1045
S'ClosestNode_WayPoint6'
p1046
aS'CurrentNode_WayPoint6'
p1047
atp1048
Rp1049
(lp1050
S'goto_WayPoint4'
p1051
atp1052
a(g2
((lp1053
S'ClosestNode_WayPoint6'
p1054
aS'CurrentNode_none'
p1055
atp1056
Rp1057
(lp1058
S'goto_WayPoint4'
p1059
atp1060
a(g2
((lp1061
S'ClosestNode_WayPoint4'
p1062
aS'CurrentNode_none'
p1063
atp1064
Rp1065
(lp1066
S'goto_WayPoint4'
p1067
atp1068
a(g2
((lp1069
S'CurrentNode_WayPoint4'
p1070
aS'ClosestNode_WayPoint4'
p1071
atp1072
Rp1073
(lp1074
g97
atp1075
aa(lp1076
(g2
((lp1077
S'CurrentNode_none'
p1078
aS'ClosestNode_WayPoint9'
p1079
atp1080
Rp1081
(lp1082
S'goto_WayPoint8'
p1083
atp1084
a(g2
((lp1085
S'CurrentNode_none'
p1086
aS'ClosestNode_WayPoint8'
p1087
atp1088
Rp1089
(lp1090
S'goto_WayPoint8'
p1091
atp1092
a(g2
((lp1093
S'CurrentNode_WayPoint8'
p1094
aS'ClosestNode_WayPoint8'
p1095
atp1096
Rp1097
(lp1098
S'goto_WayPoint5'
p1099
atp1100
a(g2
((lp1101
S'CurrentNode_none'
p1102
aS'ClosestNode_WayPoint8'
p1103
atp1104
Rp1105
(lp1106
S'goto_WayPoint5'
p1107
atp1108
a(g2
((lp1109
S'ClosestNode_WayPoint5'
p1110
aS'CurrentNode_none'
p1111
atp1112
Rp1113
(lp1114
S'goto_WayPoint5'
p1115
atp1116
a(g2
((lp1117
S'CurrentNode_WayPoint5'
p1118
aS'ClosestNode_WayPoint5'
p1119
atp1120
Rp1121
(lp1122
S'goto_WayPoint4'
p1123
atp1124
a(g2
((lp1125
S'ClosestNode_WayPoint5'
p1126
aS'CurrentNode_none'
p1127
atp1128
Rp1129
(lp1130
S'goto_WayPoint4'
p1131
atp1132
a(g2
((lp1133
S'ClosestNode_WayPoint6'
p1134
aS'CurrentNode_none'
p1135
atp1136
Rp1137
(lp1138
S'goto_WayPoint4'
p1139
atp1140
a(g2
((lp1141
S'ClosestNode_WayPoint4'
p1142
aS'CurrentNode_none'
p1143
atp1144
Rp1145
(lp1146
S'goto_WayPoint4'
p1147
atp1148
a(g2
((lp1149
S'CurrentNode_WayPoint4'
p1150
aS'ClosestNode_WayPoint4'
p1151
atp1152
Rp1153
(lp1154
g97
atp1155
aa(lp1156
(g2
((lp1157
S'ClosestNode_WayPoint13'
p1158
aS'CurrentNode_none'
p1159
atp1160
Rp1161
(lp1162
S'goto_WayPoint3'
p1163
atp1164
a(g2
((lp1165
S'CurrentNode_none'
p1166
aS'ClosestNode_WayPoint3'
p1167
atp1168
Rp1169
(lp1170
S'goto_WayPoint3'
p1171
atp1172
a(g2
((lp1173
S'ClosestNode_WayPoint3'
p1174
aS'CurrentNode_WayPoint3'
p1175
atp1176
Rp1177
(lp1178
S'goto_WayPoint4'
p1179
atp1180
a(g2
((lp1181
S'CurrentNode_none'
p1182
aS'ClosestNode_WayPoint3'
p1183
atp1184
Rp1185
(lp1186
S'goto_WayPoint4'
p1187
atp1188
a(g2
((lp1189
S'ClosestNode_WayPoint4'
p1190
aS'CurrentNode_none'
p1191
atp1192
Rp1193
(lp1194
S'goto_WayPoint4'
p1195
atp1196
a(g2
((lp1197
S'CurrentNode_WayPoint4'
p1198
aS'ClosestNode_WayPoint4'
p1199
atp1200
Rp1201
(lp1202
g97
atp1203
aa(lp1204
(g2
((lp1205
S'ClosestNode_WayPoint3'
p1206
aS'CurrentNode_WayPoint3'
p1207
atp1208
Rp1209
(lp1210
S'goto_WayPoint4'
p1211
atp1212
a(g2
((lp1213
S'CurrentNode_none'
p1214
aS'ClosestNode_WayPoint3'
p1215
atp1216
Rp1217
(lp1218
S'goto_WayPoint4'
p1219
atp1220
a(g2
((lp1221
S'ClosestNode_WayPoint4'
p1222
aS'CurrentNode_none'
p1223
atp1224
Rp1225
(lp1226
S'goto_WayPoint4'
p1227
atp1228
a(g2
((lp1229
S'CurrentNode_WayPoint4'
p1230
aS'ClosestNode_WayPoint4'
p1231
atp1232
Rp1233
(lp1234
g97
atp1235
aa(lp1236
(g2
((lp1237
S'ClosestNode_WayPoint10'
p1238
aS'CurrentNode_WayPoint10'
p1239
atp1240
Rp1241
(lp1242
S'goto_WayPoint8'
p1243
atp1244
a(g2
((lp1245
S'ClosestNode_WayPoint10'
p1246
aS'CurrentNode_none'
p1247
atp1248
Rp1249
(lp1250
S'goto_WayPoint8'
p1251
atp1252
a(g2
((lp1253
S'CurrentNode_none'
p1254
aS'ClosestNode_WayPoint9'
p1255
atp1256
Rp1257
(lp1258
S'goto_WayPoint8'
p1259
atp1260
a(g2
((lp1261
S'CurrentNode_none'
p1262
aS'ClosestNode_WayPoint8'
p1263
atp1264
Rp1265
(lp1266
S'goto_WayPoint8'
p1267
atp1268
a(g2
((lp1269
S'CurrentNode_WayPoint8'
p1270
aS'ClosestNode_WayPoint8'
p1271
atp1272
Rp1273
(lp1274
S'goto_WayPoint12'
p1275
atp1276
a(g2
((lp1277
S'CurrentNode_none'
p1278
aS'ClosestNode_WayPoint8'
p1279
atp1280
Rp1281
(lp1282
S'goto_WayPoint12'
p1283
atp1284
a(g2
((lp1285
S'ClosestNode_WayPoint5'
p1286
aS'CurrentNode_none'
p1287
atp1288
Rp1289
(lp1290
S'goto_WayPoint12'
p1291
atp1292
a(g2
((lp1293
S'ClosestNode_WayPoint12'
p1294
aS'CurrentNode_none'
p1295
atp1296
Rp1297
(lp1298
S'goto_WayPoint12'
p1299
atp1300
a(g2
((lp1301
S'ClosestNode_WayPoint12'
p1302
aS'CurrentNode_WayPoint12'
p1303
atp1304
Rp1305
(lp1306
S'goto_WayPoint5'
p1307
atp1308
a(g2
((lp1309
S'ClosestNode_WayPoint12'
p1310
aS'CurrentNode_none'
p1311
atp1312
Rp1313
(lp1314
S'goto_WayPoint5'
p1315
atp1316
a(g2
((lp1317
S'ClosestNode_WayPoint5'
p1318
aS'CurrentNode_none'
p1319
atp1320
Rp1321
(lp1322
S'goto_WayPoint5'
p1323
atp1324
a(g2
((lp1325
S'CurrentNode_WayPoint5'
p1326
aS'ClosestNode_WayPoint5'
p1327
atp1328
Rp1329
(lp1330
S'goto_WayPoint6'
p1331
atp1332
a(g2
((lp1333
S'ClosestNode_WayPoint5'
p1334
aS'CurrentNode_none'
p1335
atp1336
Rp1337
(lp1338
S'goto_WayPoint6'
p1339
atp1340
a(g2
((lp1341
S'ClosestNode_WayPoint6'
p1342
aS'CurrentNode_none'
p1343
atp1344
Rp1345
(lp1346
S'goto_WayPoint6'
p1347
atp1348
a(g2
((lp1349
S'ClosestNode_WayPoint6'
p1350
aS'CurrentNode_WayPoint6'
p1351
atp1352
Rp1353
(lp1354
S'goto_WayPoint4'
p1355
atp1356
a(g2
((lp1357
S'ClosestNode_WayPoint6'
p1358
aS'CurrentNode_none'
p1359
atp1360
Rp1361
(lp1362
S'goto_WayPoint4'
p1363
atp1364
a(g2
((lp1365
S'ClosestNode_WayPoint4'
p1366
aS'CurrentNode_none'
p1367
atp1368
Rp1369
(lp1370
S'goto_WayPoint4'
p1371
atp1372
a(g2
((lp1373
S'CurrentNode_WayPoint4'
p1374
aS'ClosestNode_WayPoint4'
p1375
atp1376
Rp1377
(lp1378
g97
atp1379
aa(lp1380
(g2
((lp1381
S'CurrentNode_none'
p1382
aS'ClosestNode_WayPoint1'
p1383
atp1384
Rp1385
(lp1386
S'goto_WayPoint12'
p1387
atp1388
a(g2
((lp1389
S'ClosestNode_WayPoint12'
p1390
aS'CurrentNode_none'
p1391
atp1392
Rp1393
(lp1394
S'goto_WayPoint12'
p1395
atp1396
a(g2
((lp1397
S'ClosestNode_WayPoint12'
p1398
aS'CurrentNode_WayPoint12'
p1399
atp1400
Rp1401
(lp1402
S'goto_WayPoint3'
p1403
atp1404
a(g2
((lp1405
S'ClosestNode_WayPoint12'
p1406
aS'CurrentNode_none'
p1407
atp1408
Rp1409
(lp1410
S'goto_WayPoint3'
p1411
atp1412
a(g2
((lp1413
S'ClosestNode_WayPoint7'
p1414
aS'CurrentNode_none'
p1415
atp1416
Rp1417
(lp1418
S'goto_WayPoint3'
p1419
atp1420
a(g2
((lp1421
S'CurrentNode_none'
p1422
aS'ClosestNode_WayPoint3'
p1423
atp1424
Rp1425
(lp1426
S'goto_WayPoint3'
p1427
atp1428
a(g2
((lp1429
S'ClosestNode_WayPoint3'
p1430
aS'CurrentNode_WayPoint3'
p1431
atp1432
Rp1433
(lp1434
S'goto_WayPoint4'
p1435
atp1436
a(g2
((lp1437
S'CurrentNode_none'
p1438
aS'ClosestNode_WayPoint3'
p1439
atp1440
Rp1441
(lp1442
S'goto_WayPoint4'
p1443
atp1444
a(g2
((lp1445
S'ClosestNode_WayPoint4'
p1446
aS'CurrentNode_none'
p1447
atp1448
Rp1449
(lp1450
S'goto_WayPoint4'
p1451
atp1452
a(g2
((lp1453
S'CurrentNode_WayPoint4'
p1454
aS'ClosestNode_WayPoint4'
p1455
atp1456
Rp1457
(lp1458
g97
atp1459
aa(lp1460
(g2
((lp1461
S'CurrentNode_WayPoint9'
p1462
aS'ClosestNode_WayPoint9'
p1463
atp1464
Rp1465
(lp1466
S'goto_WayPoint8'
p1467
atp1468
a(g2
((lp1469
S'CurrentNode_none'
p1470
aS'ClosestNode_WayPoint9'
p1471
atp1472
Rp1473
(lp1474
S'goto_WayPoint8'
p1475
atp1476
a(g2
((lp1477
S'CurrentNode_none'
p1478
aS'ClosestNode_WayPoint8'
p1479
atp1480
Rp1481
(lp1482
S'goto_WayPoint8'
p1483
atp1484
a(g2
((lp1485
S'CurrentNode_WayPoint8'
p1486
aS'ClosestNode_WayPoint8'
p1487
atp1488
Rp1489
(lp1490
S'goto_WayPoint6'
p1491
atp1492
a(g2
((lp1493
S'CurrentNode_none'
p1494
aS'ClosestNode_WayPoint8'
p1495
atp1496
Rp1497
(lp1498
S'goto_WayPoint6'
p1499
atp1500
a(g2
((lp1501
S'ClosestNode_WayPoint5'
p1502
aS'CurrentNode_none'
p1503
atp1504
Rp1505
(lp1506
S'goto_WayPoint6'
p1507
atp1508
a(g2
((lp1509
S'ClosestNode_WayPoint6'
p1510
aS'CurrentNode_none'
p1511
atp1512
Rp1513
(lp1514
S'goto_WayPoint6'
p1515
atp1516
a(g2
((lp1517
S'ClosestNode_WayPoint6'
p1518
aS'CurrentNode_WayPoint6'
p1519
atp1520
Rp1521
(lp1522
S'goto_WayPoint4'
p1523
atp1524
a(g2
((lp1525
S'ClosestNode_WayPoint6'
p1526
aS'CurrentNode_none'
p1527
atp1528
Rp1529
(lp1530
S'goto_WayPoint4'
p1531
atp1532
a(g2
((lp1533
S'ClosestNode_WayPoint4'
p1534
aS'CurrentNode_none'
p1535
atp1536
Rp1537
(lp1538
S'goto_WayPoint4'
p1539
atp1540
a(g2
((lp1541
S'CurrentNode_WayPoint4'
p1542
aS'ClosestNode_WayPoint4'
p1543
atp1544
Rp1545
(lp1546
g97
atp1547
aa(lp1548
(g2
((lp1549
S'ClosestNode_WayPoint13'
p1550
aS'CurrentNode_none'
p1551
atp1552
Rp1553
(lp1554
S'goto_WayPoint7'
p1555
atp1556
a(g2
((lp1557
S'ClosestNode_WayPoint7'
p1558
aS'CurrentNode_none'
p1559
atp1560
Rp1561
(lp1562
S'goto_WayPoint7'
p1563
atp1564
a(g2
((lp1565
S'ClosestNode_WayPoint7'
p1566
aS'CurrentNode_WayPoint7'
p1567
atp1568
Rp1569
(lp1570
S'goto_WayPoint4'
p1571
atp1572
a(g2
((lp1573
S'ClosestNode_WayPoint7'
p1574
aS'CurrentNode_none'
p1575
atp1576
Rp1577
(lp1578
S'goto_WayPoint4'
p1579
atp1580
a(g2
((lp1581
S'ClosestNode_WayPoint6'
p1582
aS'CurrentNode_none'
p1583
atp1584
Rp1585
(lp1586
S'goto_WayPoint4'
p1587
atp1588
a(g2
((lp1589
S'ClosestNode_WayPoint4'
p1590
aS'CurrentNode_none'
p1591
atp1592
Rp1593
(lp1594
S'goto_WayPoint4'
p1595
atp1596
a(g2
((lp1597
S'CurrentNode_WayPoint4'
p1598
aS'ClosestNode_WayPoint4'
p1599
atp1600
Rp1601
(lp1602
g97
atp1603
aa(lp1604
(g2
((lp1605
S'ClosestNode_WayPoint13'
p1606
aS'CurrentNode_none'
p1607
atp1608
Rp1609
(lp1610
S'goto_WayPoint13'
p1611
atp1612
a(g2
((lp1613
S'ClosestNode_WayPoint13'
p1614
aS'CurrentNode_WayPoint13'
p1615
atp1616
Rp1617
(lp1618
S'goto_WayPoint3'
p1619
atp1620
a(g2
((lp1621
S'ClosestNode_WayPoint13'
p1622
aS'CurrentNode_none'
p1623
atp1624
Rp1625
(lp1626
S'goto_WayPoint3'
p1627
atp1628
a(g2
((lp1629
S'CurrentNode_none'
p1630
aS'ClosestNode_WayPoint3'
p1631
atp1632
Rp1633
(lp1634
S'goto_WayPoint3'
p1635
atp1636
a(g2
((lp1637
S'ClosestNode_WayPoint3'
p1638
aS'CurrentNode_WayPoint3'
p1639
atp1640
Rp1641
(lp1642
S'goto_WayPoint4'
p1643
atp1644
a(g2
((lp1645
S'CurrentNode_none'
p1646
aS'ClosestNode_WayPoint3'
p1647
atp1648
Rp1649
(lp1650
S'goto_WayPoint4'
p1651
atp1652
a(g2
((lp1653
S'ClosestNode_WayPoint4'
p1654
aS'CurrentNode_none'
p1655
atp1656
Rp1657
(lp1658
S'goto_WayPoint4'
p1659
atp1660
a(g2
((lp1661
S'CurrentNode_WayPoint4'
p1662
aS'ClosestNode_WayPoint4'
p1663
atp1664
Rp1665
(lp1666
g97
atp1667
aa(lp1668
(g2
((lp1669
S'ClosestNode_WayPoint7'
p1670
aS'CurrentNode_WayPoint7'
p1671
atp1672
Rp1673
(lp1674
S'goto_WayPoint6'
p1675
atp1676
a(g2
((lp1677
S'ClosestNode_WayPoint7'
p1678
aS'CurrentNode_none'
p1679
atp1680
Rp1681
(lp1682
S'goto_WayPoint6'
p1683
atp1684
a(g2
((lp1685
S'ClosestNode_WayPoint6'
p1686
aS'CurrentNode_none'
p1687
atp1688
Rp1689
(lp1690
S'goto_WayPoint6'
p1691
atp1692
a(g2
((lp1693
S'ClosestNode_WayPoint6'
p1694
aS'CurrentNode_WayPoint6'
p1695
atp1696
Rp1697
(lp1698
S'goto_WayPoint4'
p1699
atp1700
a(g2
((lp1701
S'ClosestNode_WayPoint6'
p1702
aS'CurrentNode_none'
p1703
atp1704
Rp1705
(lp1706
S'goto_WayPoint4'
p1707
atp1708
a(g2
((lp1709
S'ClosestNode_WayPoint4'
p1710
aS'CurrentNode_none'
p1711
atp1712
Rp1713
(lp1714
S'goto_WayPoint4'
p1715
atp1716
a(g2
((lp1717
S'CurrentNode_WayPoint4'
p1718
aS'ClosestNode_WayPoint4'
p1719
atp1720
Rp1721
(lp1722
g97
atp1723
aa(lp1724
(g2
((lp1725
S'ClosestNode_WayPoint2'
p1726
aS'CurrentNode_WayPoint2'
p1727
atp1728
Rp1729
(lp1730
S'goto_WayPoint7'
p1731
atp1732
a(g2
((lp1733
S'ClosestNode_WayPoint2'
p1734
aS'CurrentNode_none'
p1735
atp1736
Rp1737
(lp1738
S'goto_WayPoint7'
p1739
atp1740
a(g2
((lp1741
S'ClosestNode_WayPoint7'
p1742
aS'CurrentNode_none'
p1743
atp1744
Rp1745
(lp1746
S'goto_WayPoint7'
p1747
atp1748
a(g2
((lp1749
S'ClosestNode_WayPoint7'
p1750
aS'CurrentNode_WayPoint7'
p1751
atp1752
Rp1753
(lp1754
S'goto_WayPoint4'
p1755
atp1756
a(g2
((lp1757
S'ClosestNode_WayPoint7'
p1758
aS'CurrentNode_none'
p1759
atp1760
Rp1761
(lp1762
S'goto_WayPoint4'
p1763
atp1764
a(g2
((lp1765
S'ClosestNode_WayPoint6'
p1766
aS'CurrentNode_none'
p1767
atp1768
Rp1769
(lp1770
S'goto_WayPoint4'
p1771
atp1772
a(g2
((lp1773
S'ClosestNode_WayPoint4'
p1774
aS'CurrentNode_none'
p1775
atp1776
Rp1777
(lp1778
S'goto_WayPoint4'
p1779
atp1780
a(g2
((lp1781
S'CurrentNode_WayPoint4'
p1782
aS'ClosestNode_WayPoint4'
p1783
atp1784
Rp1785
(lp1786
g97
atp1787
aa(lp1788
(g2
((lp1789
S'ClosestNode_WayPoint6'
p1790
aS'CurrentNode_WayPoint6'
p1791
atp1792
Rp1793
(lp1794
S'goto_WayPoint4'
p1795
atp1796
a(g2
((lp1797
S'ClosestNode_WayPoint6'
p1798
aS'CurrentNode_none'
p1799
atp1800
Rp1801
(lp1802
S'goto_WayPoint4'
p1803
atp1804
a(g2
((lp1805
S'ClosestNode_WayPoint4'
p1806
aS'CurrentNode_none'
p1807
atp1808
Rp1809
(lp1810
S'goto_WayPoint4'
p1811
atp1812
a(g2
((lp1813
S'CurrentNode_WayPoint4'
p1814
aS'ClosestNode_WayPoint4'
p1815
atp1816
Rp1817
(lp1818
g97
atp1819
aa(lp1820
(g2
((lp1821
S'ClosestNode_WayPoint6'
p1822
aS'CurrentNode_WayPoint6'
p1823
atp1824
Rp1825
(lp1826
S'goto_WayPoint4'
p1827
atp1828
a(g2
((lp1829
S'ClosestNode_WayPoint6'
p1830
aS'CurrentNode_none'
p1831
atp1832
Rp1833
(lp1834
S'goto_WayPoint4'
p1835
atp1836
a(g2
((lp1837
S'ClosestNode_WayPoint4'
p1838
aS'CurrentNode_none'
p1839
atp1840
Rp1841
(lp1842
S'goto_WayPoint4'
p1843
atp1844
a(g2
((lp1845
S'CurrentNode_WayPoint4'
p1846
aS'ClosestNode_WayPoint4'
p1847
atp1848
Rp1849
(lp1850
g97
atp1851
aa(lp1852
(g2
((lp1853
S'CurrentNode_WayPoint8'
p1854
aS'ClosestNode_WayPoint8'
p1855
atp1856
Rp1857
(lp1858
S'goto_WayPoint6'
p1859
atp1860
a(g2
((lp1861
S'CurrentNode_none'
p1862
aS'ClosestNode_WayPoint8'
p1863
atp1864
Rp1865
(lp1866
S'goto_WayPoint6'
p1867
atp1868
a(g2
((lp1869
S'ClosestNode_WayPoint5'
p1870
aS'CurrentNode_none'
p1871
atp1872
Rp1873
(lp1874
S'goto_WayPoint6'
p1875
atp1876
a(g2
((lp1877
S'ClosestNode_WayPoint6'
p1878
aS'CurrentNode_none'
p1879
atp1880
Rp1881
(lp1882
S'goto_WayPoint6'
p1883
atp1884
a(g2
((lp1885
S'ClosestNode_WayPoint6'
p1886
aS'CurrentNode_WayPoint6'
p1887
atp1888
Rp1889
(lp1890
S'goto_WayPoint4'
p1891
atp1892
a(g2
((lp1893
S'ClosestNode_WayPoint6'
p1894
aS'CurrentNode_none'
p1895
atp1896
Rp1897
(lp1898
S'goto_WayPoint4'
p1899
atp1900
a(g2
((lp1901
S'ClosestNode_WayPoint4'
p1902
aS'CurrentNode_none'
p1903
atp1904
Rp1905
(lp1906
S'goto_WayPoint4'
p1907
atp1908
a(g2
((lp1909
S'CurrentNode_WayPoint4'
p1910
aS'ClosestNode_WayPoint4'
p1911
atp1912
Rp1913
(lp1914
g97
atp1915
aa(lp1916
(g2
((lp1917
S'CurrentNode_WayPoint8'
p1918
aS'ClosestNode_WayPoint8'
p1919
atp1920
Rp1921
(lp1922
S'goto_WayPoint5'
p1923
atp1924
a(g2
((lp1925
S'CurrentNode_none'
p1926
aS'ClosestNode_WayPoint8'
p1927
atp1928
Rp1929
(lp1930
S'goto_WayPoint5'
p1931
atp1932
a(g2
((lp1933
S'ClosestNode_WayPoint5'
p1934
aS'CurrentNode_none'
p1935
atp1936
Rp1937
(lp1938
S'goto_WayPoint5'
p1939
atp1940
a(g2
((lp1941
S'CurrentNode_WayPoint5'
p1942
aS'ClosestNode_WayPoint5'
p1943
atp1944
Rp1945
(lp1946
S'goto_WayPoint6'
p1947
atp1948
a(g2
((lp1949
S'ClosestNode_WayPoint5'
p1950
aS'CurrentNode_none'
p1951
atp1952
Rp1953
(lp1954
S'goto_WayPoint6'
p1955
atp1956
a(g2
((lp1957
S'ClosestNode_WayPoint6'
p1958
aS'CurrentNode_none'
p1959
atp1960
Rp1961
(lp1962
S'goto_WayPoint6'
p1963
atp1964
a(g2
((lp1965
S'ClosestNode_WayPoint6'
p1966
aS'CurrentNode_WayPoint6'
p1967
atp1968
Rp1969
(lp1970
S'goto_WayPoint4'
p1971
atp1972
a(g2
((lp1973
S'ClosestNode_WayPoint6'
p1974
aS'CurrentNode_none'
p1975
atp1976
Rp1977
(lp1978
S'goto_WayPoint4'
p1979
atp1980
a(g2
((lp1981
S'ClosestNode_WayPoint4'
p1982
aS'CurrentNode_none'
p1983
atp1984
Rp1985
(lp1986
S'goto_WayPoint4'
p1987
atp1988
a(g2
((lp1989
S'CurrentNode_WayPoint4'
p1990
aS'ClosestNode_WayPoint4'
p1991
atp1992
Rp1993
(lp1994
g97
atp1995
aa(lp1996
(g2
((lp1997
S'ClosestNode_WayPoint12'
p1998
aS'CurrentNode_WayPoint12'
p1999
atp2000
Rp2001
(lp2002
S'goto_WayPoint5'
p2003
atp2004
a(g2
((lp2005
S'ClosestNode_WayPoint12'
p2006
aS'CurrentNode_none'
p2007
atp2008
Rp2009
(lp2010
S'goto_WayPoint5'
p2011
atp2012
a(g2
((lp2013
S'ClosestNode_WayPoint5'
p2014
aS'CurrentNode_none'
p2015
atp2016
Rp2017
(lp2018
S'goto_WayPoint5'
p2019
atp2020
a(g2
((lp2021
S'CurrentNode_WayPoint5'
p2022
aS'ClosestNode_WayPoint5'
p2023
atp2024
Rp2025
(lp2026
S'goto_WayPoint6'
p2027
atp2028
a(g2
((lp2029
S'ClosestNode_WayPoint5'
p2030
aS'CurrentNode_none'
p2031
atp2032
Rp2033
(lp2034
S'goto_WayPoint6'
p2035
atp2036
a(g2
((lp2037
S'ClosestNode_WayPoint6'
p2038
aS'CurrentNode_none'
p2039
atp2040
Rp2041
(lp2042
S'goto_WayPoint6'
p2043
atp2044
a(g2
((lp2045
S'ClosestNode_WayPoint6'
p2046
aS'CurrentNode_WayPoint6'
p2047
atp2048
Rp2049
(lp2050
S'goto_WayPoint4'
p2051
atp2052
a(g2
((lp2053
S'ClosestNode_WayPoint6'
p2054
aS'CurrentNode_none'
p2055
atp2056
Rp2057
(lp2058
S'goto_WayPoint4'
p2059
atp2060
a(g2
((lp2061
S'ClosestNode_WayPoint4'
p2062
aS'CurrentNode_none'
p2063
atp2064
Rp2065
(lp2066
S'goto_WayPoint4'
p2067
atp2068
a(g2
((lp2069
S'CurrentNode_WayPoint4'
p2070
aS'ClosestNode_WayPoint4'
p2071
atp2072
Rp2073
(lp2074
g97
atp2075
aa(lp2076
(g2
((lp2077
S'ClosestNode_WayPoint11'
p2078
aS'CurrentNode_WayPoint11'
p2079
atp2080
Rp2081
(lp2082
S'goto_WayPoint8'
p2083
atp2084
a(g2
((lp2085
S'ClosestNode_WayPoint11'
p2086
aS'CurrentNode_none'
p2087
atp2088
Rp2089
(lp2090
S'goto_WayPoint8'
p2091
atp2092
a(g2
((lp2093
S'ClosestNode_WayPoint10'
p2094
aS'CurrentNode_none'
p2095
atp2096
Rp2097
(lp2098
S'goto_WayPoint8'
p2099
atp2100
a(g2
((lp2101
S'CurrentNode_none'
p2102
aS'ClosestNode_WayPoint9'
p2103
atp2104
Rp2105
(lp2106
S'goto_WayPoint8'
p2107
atp2108
a(g2
((lp2109
S'CurrentNode_none'
p2110
aS'ClosestNode_WayPoint8'
p2111
atp2112
Rp2113
(lp2114
S'goto_WayPoint8'
p2115
atp2116
a(g2
((lp2117
S'CurrentNode_WayPoint8'
p2118
aS'ClosestNode_WayPoint8'
p2119
atp2120
Rp2121
(lp2122
S'goto_WayPoint5'
p2123
atp2124
a(g2
((lp2125
S'CurrentNode_none'
p2126
aS'ClosestNode_WayPoint8'
p2127
atp2128
Rp2129
(lp2130
S'goto_WayPoint5'
p2131
atp2132
a(g2
((lp2133
S'ClosestNode_WayPoint5'
p2134
aS'CurrentNode_none'
p2135
atp2136
Rp2137
(lp2138
S'goto_WayPoint5'
p2139
atp2140
a(g2
((lp2141
S'CurrentNode_WayPoint5'
p2142
aS'ClosestNode_WayPoint5'
p2143
atp2144
Rp2145
(lp2146
S'goto_WayPoint6'
p2147
atp2148
a(g2
((lp2149
S'ClosestNode_WayPoint5'
p2150
aS'CurrentNode_none'
p2151
atp2152
Rp2153
(lp2154
S'goto_WayPoint6'
p2155
atp2156
a(g2
((lp2157
S'ClosestNode_WayPoint6'
p2158
aS'CurrentNode_none'
p2159
atp2160
Rp2161
(lp2162
S'goto_WayPoint6'
p2163
atp2164
a(g2
((lp2165
S'ClosestNode_WayPoint6'
p2166
aS'CurrentNode_WayPoint6'
p2167
atp2168
Rp2169
(lp2170
S'goto_WayPoint4'
p2171
atp2172
a(g2
((lp2173
S'ClosestNode_WayPoint6'
p2174
aS'CurrentNode_none'
p2175
atp2176
Rp2177
(lp2178
S'goto_WayPoint4'
p2179
atp2180
a(g2
((lp2181
S'ClosestNode_WayPoint4'
p2182
aS'CurrentNode_none'
p2183
atp2184
Rp2185
(lp2186
S'goto_WayPoint4'
p2187
atp2188
a(g2
((lp2189
S'CurrentNode_WayPoint4'
p2190
aS'ClosestNode_WayPoint4'
p2191
atp2192
Rp2193
(lp2194
g97
atp2195
aa(lp2196
(g2
((lp2197
S'CurrentNode_none'
p2198
aS'ClosestNode_WayPoint3'
p2199
atp2200
Rp2201
(lp2202
S'goto_WayPoint3'
p2203
atp2204
a(g2
((lp2205
S'ClosestNode_WayPoint3'
p2206
aS'CurrentNode_WayPoint3'
p2207
atp2208
Rp2209
(lp2210
S'goto_WayPoint4'
p2211
atp2212
a(g2
((lp2213
S'CurrentNode_none'
p2214
aS'ClosestNode_WayPoint3'
p2215
atp2216
Rp2217
(lp2218
S'goto_WayPoint4'
p2219
atp2220
a(g2
((lp2221
S'ClosestNode_WayPoint4'
p2222
aS'CurrentNode_none'
p2223
atp2224
Rp2225
(lp2226
S'goto_WayPoint4'
p2227
atp2228
a(g2
((lp2229
S'CurrentNode_WayPoint4'
p2230
aS'ClosestNode_WayPoint4'
p2231
atp2232
Rp2233
(lp2234
g97
atp2235
aa(lp2236
(g2
((lp2237
S'CurrentNode_WayPoint1'
p2238
aS'ClosestNode_WayPoint1'
p2239
atp2240
Rp2241
(lp2242
S'goto_WayPoint12'
p2243
atp2244
a(g2
((lp2245
S'CurrentNode_none'
p2246
aS'ClosestNode_WayPoint1'
p2247
atp2248
Rp2249
(lp2250
S'goto_WayPoint12'
p2251
atp2252
a(g2
((lp2253
S'ClosestNode_WayPoint12'
p2254
aS'CurrentNode_none'
p2255
atp2256
Rp2257
(lp2258
S'goto_WayPoint12'
p2259
atp2260
a(g2
((lp2261
S'ClosestNode_WayPoint12'
p2262
aS'CurrentNode_WayPoint12'
p2263
atp2264
Rp2265
(lp2266
S'goto_WayPoint6'
p2267
atp2268
a(g2
((lp2269
S'ClosestNode_WayPoint12'
p2270
aS'CurrentNode_none'
p2271
atp2272
Rp2273
(lp2274
S'goto_WayPoint6'
p2275
atp2276
a(g2
((lp2277
S'ClosestNode_WayPoint5'
p2278
aS'CurrentNode_none'
p2279
atp2280
Rp2281
(lp2282
S'goto_WayPoint6'
p2283
atp2284
a(g2
((lp2285
S'ClosestNode_WayPoint7'
p2286
aS'CurrentNode_none'
p2287
atp2288
Rp2289
(lp2290
S'goto_WayPoint6'
p2291
atp2292
a(g2
((lp2293
S'ClosestNode_WayPoint6'
p2294
aS'CurrentNode_none'
p2295
atp2296
Rp2297
(lp2298
S'goto_WayPoint6'
p2299
atp2300
a(g2
((lp2301
S'ClosestNode_WayPoint6'
p2302
aS'CurrentNode_WayPoint6'
p2303
atp2304
Rp2305
(lp2306
S'goto_WayPoint4'
p2307
atp2308
a(g2
((lp2309
S'ClosestNode_WayPoint6'
p2310
aS'CurrentNode_none'
p2311
atp2312
Rp2313
(lp2314
S'goto_WayPoint4'
p2315
atp2316
a(g2
((lp2317
S'ClosestNode_WayPoint4'
p2318
aS'CurrentNode_none'
p2319
atp2320
Rp2321
(lp2322
S'goto_WayPoint4'
p2323
atp2324
a(g2
((lp2325
S'CurrentNode_WayPoint4'
p2326
aS'ClosestNode_WayPoint4'
p2327
atp2328
Rp2329
(lp2330
g97
atp2331
aa(lp2332
(g2
((lp2333
S'CurrentNode_WayPoint9'
p2334
aS'ClosestNode_WayPoint9'
p2335
atp2336
Rp2337
(lp2338
S'goto_WayPoint8'
p2339
atp2340
a(g2
((lp2341
S'CurrentNode_none'
p2342
aS'ClosestNode_WayPoint9'
p2343
atp2344
Rp2345
(lp2346
S'goto_WayPoint8'
p2347
atp2348
a(g2
((lp2349
S'CurrentNode_none'
p2350
aS'ClosestNode_WayPoint8'
p2351
atp2352
Rp2353
(lp2354
S'goto_WayPoint8'
p2355
atp2356
a(g2
((lp2357
S'CurrentNode_WayPoint8'
p2358
aS'ClosestNode_WayPoint8'
p2359
atp2360
Rp2361
(lp2362
S'goto_WayPoint6'
p2363
atp2364
a(g2
((lp2365
S'CurrentNode_none'
p2366
aS'ClosestNode_WayPoint8'
p2367
atp2368
Rp2369
(lp2370
S'goto_WayPoint6'
p2371
atp2372
a(g2
((lp2373
S'ClosestNode_WayPoint5'
p2374
aS'CurrentNode_none'
p2375
atp2376
Rp2377
(lp2378
S'goto_WayPoint6'
p2379
atp2380
a(g2
((lp2381
S'ClosestNode_WayPoint6'
p2382
aS'CurrentNode_none'
p2383
atp2384
Rp2385
(lp2386
S'goto_WayPoint6'
p2387
atp2388
a(g2
((lp2389
S'ClosestNode_WayPoint6'
p2390
aS'CurrentNode_WayPoint6'
p2391
atp2392
Rp2393
(lp2394
S'goto_WayPoint4'
p2395
atp2396
a(g2
((lp2397
S'ClosestNode_WayPoint6'
p2398
aS'CurrentNode_none'
p2399
atp2400
Rp2401
(lp2402
S'goto_WayPoint4'
p2403
atp2404
a(g2
((lp2405
S'ClosestNode_WayPoint4'
p2406
aS'CurrentNode_none'
p2407
atp2408
Rp2409
(lp2410
S'goto_WayPoint4'
p2411
atp2412
a(g2
((lp2413
S'CurrentNode_WayPoint4'
p2414
aS'ClosestNode_WayPoint4'
p2415
atp2416
Rp2417
(lp2418
g97
atp2419
aa.